; Function Attrs: mustprogress uwtable
define void @_ZN7rocksdb13InternalStats27TEST_GetCacheEntryRoleStatsEPNS0_19CacheEntryRoleStatsEb(ptr nocapture noundef nonnull readonly align 8 dereferenceable(1944) %this, ptr noundef %stats, i1 noundef zeroext %foreground) local_unnamed_addr #4 align 2 personality ptr @__gxx_personality_v0 {
entry:
  %cache_entry_stats_collector_.i = getelementptr inbounds i8, ptr %this, i64 296
  %0 = load ptr, ptr %cache_entry_stats_collector_.i, align 8
  %cmp.i.not.i = icmp eq ptr %0, null
  br i1 %cmp.i.not.i, label %if.end, label %_ZN7rocksdb13InternalStats22CollectCacheEntryStatsEb.exit

_ZN7rocksdb13InternalStats22CollectCacheEntryStatsEb.exit: ; preds = %entry
  %cond.i = select i1 %foreground, i32 10, i32 180
  %cond3.i = select i1 %foreground, i32 10, i32 500
  tail call void @_ZN7rocksdb24CacheEntryStatsCollectorINS_13InternalStats19CacheEntryRoleStatsEE12CollectStatsEii(ptr noundef nonnull align 8 dereferenceable(752) %0, i32 noundef %cond.i, i32 noundef %cond3.i)
  %.pr = load ptr, ptr %cache_entry_stats_collector_.i, align 8
  %cmp.i.not = icmp eq ptr %.pr, null
  br i1 %cmp.i.not, label %if.end, label %if.then

if.then:                                          ; preds = %_ZN7rocksdb13InternalStats22CollectCacheEntryStatsEb.exit
  %call1.i.i.i.i = tail call noundef i32 @pthread_mutex_lock(ptr noundef nonnull %.pr) #28
  %tobool.not.i.i.i = icmp eq i32 %call1.i.i.i.i, 0
  br i1 %tobool.not.i.i.i, label %_ZNSt10lock_guardISt5mutexEC2ERS0_.exit.i, label %if.then.i.i.i

if.then.i.i.i:                                    ; preds = %if.then
  tail call void @_ZSt20__throw_system_errori(i32 noundef %call1.i.i.i.i) #32
  unreachable

_ZNSt10lock_guardISt5mutexEC2ERS0_.exit.i:        ; preds = %if.then
  %saved_stats_.i = getelementptr inbounds i8, ptr %.pr, i64 40
  tail call void @llvm.memcpy.p0.p0.i64(ptr noundef nonnull align 8 dereferenceable(32) %stats, ptr noundef nonnull align 8 dereferenceable(32) %saved_stats_.i, i64 32, i1 false)
  %cache_id.i.i = getelementptr inbounds i8, ptr %stats, i64 32
  %cache_id3.i.i = getelementptr inbounds i8, ptr %.pr, i64 72
  %call.i1.i = invoke noundef nonnull align 8 dereferenceable(32) ptr @_ZNSt7__cxx1112basic_stringIcSt11char_traitsIcESaIcEEaSERKS4_(ptr noundef nonnull align 8 dereferenceable(32) %cache_id.i.i, ptr noundef nonnull align 8 dereferenceable(32) %cache_id3.i.i)
          to label %_ZN7rocksdb24CacheEntryStatsCollectorINS_13InternalStats19CacheEntryRoleStatsEE8GetStatsEPS2_.exit unwind label %lpad.i

lpad.i:                                           ; preds = %_ZNSt10lock_guardISt5mutexEC2ERS0_.exit.i
  %1 = landingpad { ptr, i32 }
          cleanup
  %call1.i.i.i3.i = tail call noundef i32 @pthread_mutex_unlock(ptr noundef nonnull %.pr) #28
  resume { ptr, i32 } %1

_ZN7rocksdb24CacheEntryStatsCollectorINS_13InternalStats19CacheEntryRoleStatsEE8GetStatsEPS2_.exit: ; preds = %_ZNSt10lock_guardISt5mutexEC2ERS0_.exit.i
  %total_charges.i.i = getelementptr inbounds i8, ptr %stats, i64 64
  %total_charges4.i.i = getelementptr inbounds i8, ptr %.pr, i64 104
  tail call void @llvm.memcpy.p0.p0.i64(ptr noundef nonnull align 8 dereferenceable(252) %total_charges.i.i, ptr noundef nonnull align 8 dereferenceable(252) %total_charges4.i.i, i64 252, i1 false)
  %call1.i.i.i2.i = tail call noundef i32 @pthread_mutex_unlock(ptr noundef nonnull %.pr) #28
  br label %if.end

if.end:                                           ; preds = %entry, %_ZN7rocksdb24CacheEntryStatsCollectorINS_13InternalStats19CacheEntryRoleStatsEE8GetStatsEPS2_.exit, %_ZN7rocksdb13InternalStats22CollectCacheEntryStatsEb.exit
  ret void
}